
bomb:     file format elf32-i386


Disassembly of section .init:

08048724 <_init>:
 8048724:	55                   	push   %ebp
 8048725:	89 e5                	mov    %esp,%ebp
 8048727:	53                   	push   %ebx
 8048728:	83 ec 04             	sub    $0x4,%esp
 804872b:	e8 00 00 00 00       	call   8048730 <_init+0xc>
 8048730:	5b                   	pop    %ebx
 8048731:	81 c3 b8 19 00 00    	add    $0x19b8,%ebx
 8048737:	8b 93 fc ff ff ff    	mov    -0x4(%ebx),%edx
 804873d:	85 d2                	test   %edx,%edx
 804873f:	74 05                	je     8048746 <_init+0x22>
 8048741:	e8 6e 00 00 00       	call   80487b4 <__gmon_start__@plt>
 8048746:	e8 65 02 00 00       	call   80489b0 <frame_dummy>
 804874b:	e8 30 10 00 00       	call   8049780 <__do_global_ctors_aux>
 8048750:	58                   	pop    %eax
 8048751:	5b                   	pop    %ebx
 8048752:	c9                   	leave  
 8048753:	c3                   	ret    

Disassembly of section .plt:

08048754 <__errno_location@plt-0x10>:
 8048754:	ff 35 ec a0 04 08    	pushl  0x804a0ec
 804875a:	ff 25 f0 a0 04 08    	jmp    *0x804a0f0
 8048760:	00 00                	add    %al,(%eax)
	...

08048764 <__errno_location@plt>:
 8048764:	ff 25 f4 a0 04 08    	jmp    *0x804a0f4
 804876a:	68 00 00 00 00       	push   $0x0
 804876f:	e9 e0 ff ff ff       	jmp    8048754 <_init+0x30>

08048774 <sprintf@plt>:
 8048774:	ff 25 f8 a0 04 08    	jmp    *0x804a0f8
 804877a:	68 08 00 00 00       	push   $0x8
 804877f:	e9 d0 ff ff ff       	jmp    8048754 <_init+0x30>

08048784 <open@plt>:
 8048784:	ff 25 fc a0 04 08    	jmp    *0x804a0fc
 804878a:	68 10 00 00 00       	push   $0x10
 804878f:	e9 c0 ff ff ff       	jmp    8048754 <_init+0x30>

08048794 <strerror@plt>:
 8048794:	ff 25 00 a1 04 08    	jmp    *0x804a100
 804879a:	68 18 00 00 00       	push   $0x18
 804879f:	e9 b0 ff ff ff       	jmp    8048754 <_init+0x30>

080487a4 <signal@plt>:
 80487a4:	ff 25 04 a1 04 08    	jmp    *0x804a104
 80487aa:	68 20 00 00 00       	push   $0x20
 80487af:	e9 a0 ff ff ff       	jmp    8048754 <_init+0x30>

080487b4 <__gmon_start__@plt>:
 80487b4:	ff 25 08 a1 04 08    	jmp    *0x804a108
 80487ba:	68 28 00 00 00       	push   $0x28
 80487bf:	e9 90 ff ff ff       	jmp    8048754 <_init+0x30>

080487c4 <__isoc99_sscanf@plt>:
 80487c4:	ff 25 0c a1 04 08    	jmp    *0x804a10c
 80487ca:	68 30 00 00 00       	push   $0x30
 80487cf:	e9 80 ff ff ff       	jmp    8048754 <_init+0x30>

080487d4 <getenv@plt>:
 80487d4:	ff 25 10 a1 04 08    	jmp    *0x804a110
 80487da:	68 38 00 00 00       	push   $0x38
 80487df:	e9 70 ff ff ff       	jmp    8048754 <_init+0x30>

080487e4 <write@plt>:
 80487e4:	ff 25 14 a1 04 08    	jmp    *0x804a114
 80487ea:	68 40 00 00 00       	push   $0x40
 80487ef:	e9 60 ff ff ff       	jmp    8048754 <_init+0x30>

080487f4 <fgets@plt>:
 80487f4:	ff 25 18 a1 04 08    	jmp    *0x804a118
 80487fa:	68 48 00 00 00       	push   $0x48
 80487ff:	e9 50 ff ff ff       	jmp    8048754 <_init+0x30>

08048804 <__libc_start_main@plt>:
 8048804:	ff 25 1c a1 04 08    	jmp    *0x804a11c
 804880a:	68 50 00 00 00       	push   $0x50
 804880f:	e9 40 ff ff ff       	jmp    8048754 <_init+0x30>

08048814 <strtol@plt>:
 8048814:	ff 25 20 a1 04 08    	jmp    *0x804a120
 804881a:	68 58 00 00 00       	push   $0x58
 804881f:	e9 30 ff ff ff       	jmp    8048754 <_init+0x30>

08048824 <fflush@plt>:
 8048824:	ff 25 24 a1 04 08    	jmp    *0x804a124
 804882a:	68 60 00 00 00       	push   $0x60
 804882f:	e9 20 ff ff ff       	jmp    8048754 <_init+0x30>

08048834 <__ctype_b_loc@plt>:
 8048834:	ff 25 28 a1 04 08    	jmp    *0x804a128
 804883a:	68 68 00 00 00       	push   $0x68
 804883f:	e9 10 ff ff ff       	jmp    8048754 <_init+0x30>

08048844 <fopen@plt>:
 8048844:	ff 25 2c a1 04 08    	jmp    *0x804a12c
 804884a:	68 70 00 00 00       	push   $0x70
 804884f:	e9 00 ff ff ff       	jmp    8048754 <_init+0x30>

08048854 <alarm@plt>:
 8048854:	ff 25 30 a1 04 08    	jmp    *0x804a130
 804885a:	68 78 00 00 00       	push   $0x78
 804885f:	e9 f0 fe ff ff       	jmp    8048754 <_init+0x30>

08048864 <getpwuid@plt>:
 8048864:	ff 25 34 a1 04 08    	jmp    *0x804a134
 804886a:	68 80 00 00 00       	push   $0x80
 804886f:	e9 e0 fe ff ff       	jmp    8048754 <_init+0x30>

08048874 <printf@plt>:
 8048874:	ff 25 38 a1 04 08    	jmp    *0x804a138
 804887a:	68 88 00 00 00       	push   $0x88
 804887f:	e9 d0 fe ff ff       	jmp    8048754 <_init+0x30>

08048884 <getuid@plt>:
 8048884:	ff 25 3c a1 04 08    	jmp    *0x804a13c
 804888a:	68 90 00 00 00       	push   $0x90
 804888f:	e9 c0 fe ff ff       	jmp    8048754 <_init+0x30>

08048894 <close@plt>:
 8048894:	ff 25 40 a1 04 08    	jmp    *0x804a140
 804889a:	68 98 00 00 00       	push   $0x98
 804889f:	e9 b0 fe ff ff       	jmp    8048754 <_init+0x30>

080488a4 <fprintf@plt>:
 80488a4:	ff 25 44 a1 04 08    	jmp    *0x804a144
 80488aa:	68 a0 00 00 00       	push   $0xa0
 80488af:	e9 a0 fe ff ff       	jmp    8048754 <_init+0x30>

080488b4 <gethostname@plt>:
 80488b4:	ff 25 48 a1 04 08    	jmp    *0x804a148
 80488ba:	68 a8 00 00 00       	push   $0xa8
 80488bf:	e9 90 fe ff ff       	jmp    8048754 <_init+0x30>

080488c4 <sleep@plt>:
 80488c4:	ff 25 4c a1 04 08    	jmp    *0x804a14c
 80488ca:	68 b0 00 00 00       	push   $0xb0
 80488cf:	e9 80 fe ff ff       	jmp    8048754 <_init+0x30>

080488d4 <puts@plt>:
 80488d4:	ff 25 50 a1 04 08    	jmp    *0x804a150
 80488da:	68 b8 00 00 00       	push   $0xb8
 80488df:	e9 70 fe ff ff       	jmp    8048754 <_init+0x30>

080488e4 <flock@plt>:
 80488e4:	ff 25 54 a1 04 08    	jmp    *0x804a154
 80488ea:	68 c0 00 00 00       	push   $0xc0
 80488ef:	e9 60 fe ff ff       	jmp    8048754 <_init+0x30>

080488f4 <snprintf@plt>:
 80488f4:	ff 25 58 a1 04 08    	jmp    *0x804a158
 80488fa:	68 c8 00 00 00       	push   $0xc8
 80488ff:	e9 50 fe ff ff       	jmp    8048754 <_init+0x30>

08048904 <exit@plt>:
 8048904:	ff 25 5c a1 04 08    	jmp    *0x804a15c
 804890a:	68 d0 00 00 00       	push   $0xd0
 804890f:	e9 40 fe ff ff       	jmp    8048754 <_init+0x30>

Disassembly of section .text:

08048920 <_start>:
 8048920:	31 ed                	xor    %ebp,%ebp
 8048922:	5e                   	pop    %esi
 8048923:	89 e1                	mov    %esp,%ecx
 8048925:	83 e4 f0             	and    $0xfffffff0,%esp
 8048928:	50                   	push   %eax
 8048929:	54                   	push   %esp
 804892a:	52                   	push   %edx
 804892b:	68 10 97 04 08       	push   $0x8049710
 8048930:	68 20 97 04 08       	push   $0x8049720
 8048935:	51                   	push   %ecx
 8048936:	56                   	push   %esi
 8048937:	68 d4 89 04 08       	push   $0x80489d4
 804893c:	e8 c3 fe ff ff       	call   8048804 <__libc_start_main@plt>
 8048941:	f4                   	hlt    
 8048942:	90                   	nop
 8048943:	90                   	nop
 8048944:	90                   	nop
 8048945:	90                   	nop
 8048946:	90                   	nop
 8048947:	90                   	nop
 8048948:	90                   	nop
 8048949:	90                   	nop
 804894a:	90                   	nop
 804894b:	90                   	nop
 804894c:	90                   	nop
 804894d:	90                   	nop
 804894e:	90                   	nop
 804894f:	90                   	nop

08048950 <__do_global_dtors_aux>:
 8048950:	55                   	push   %ebp
 8048951:	89 e5                	mov    %esp,%ebp
 8048953:	53                   	push   %ebx
 8048954:	83 ec 04             	sub    $0x4,%esp
 8048957:	80 3d 84 a6 04 08 00 	cmpb   $0x0,0x804a684
 804895e:	75 3f                	jne    804899f <__do_global_dtors_aux+0x4f>
 8048960:	a1 88 a6 04 08       	mov    0x804a688,%eax
 8048965:	bb 0c a0 04 08       	mov    $0x804a00c,%ebx
 804896a:	81 eb 08 a0 04 08    	sub    $0x804a008,%ebx
 8048970:	c1 fb 02             	sar    $0x2,%ebx
 8048973:	83 eb 01             	sub    $0x1,%ebx
 8048976:	39 d8                	cmp    %ebx,%eax
 8048978:	73 1e                	jae    8048998 <__do_global_dtors_aux+0x48>
 804897a:	8d b6 00 00 00 00    	lea    0x0(%esi),%esi
 8048980:	83 c0 01             	add    $0x1,%eax
 8048983:	a3 88 a6 04 08       	mov    %eax,0x804a688
 8048988:	ff 14 85 08 a0 04 08 	call   *0x804a008(,%eax,4)
 804898f:	a1 88 a6 04 08       	mov    0x804a688,%eax
 8048994:	39 d8                	cmp    %ebx,%eax
 8048996:	72 e8                	jb     8048980 <__do_global_dtors_aux+0x30>
 8048998:	c6 05 84 a6 04 08 01 	movb   $0x1,0x804a684
 804899f:	83 c4 04             	add    $0x4,%esp
 80489a2:	5b                   	pop    %ebx
 80489a3:	5d                   	pop    %ebp
 80489a4:	c3                   	ret    
 80489a5:	8d 74 26 00          	lea    0x0(%esi,%eiz,1),%esi
 80489a9:	8d bc 27 00 00 00 00 	lea    0x0(%edi,%eiz,1),%edi

080489b0 <frame_dummy>:
 80489b0:	55                   	push   %ebp
 80489b1:	89 e5                	mov    %esp,%ebp
 80489b3:	83 ec 18             	sub    $0x18,%esp
 80489b6:	a1 10 a0 04 08       	mov    0x804a010,%eax
 80489bb:	85 c0                	test   %eax,%eax
 80489bd:	74 12                	je     80489d1 <frame_dummy+0x21>
 80489bf:	b8 00 00 00 00       	mov    $0x0,%eax
 80489c4:	85 c0                	test   %eax,%eax
 80489c6:	74 09                	je     80489d1 <frame_dummy+0x21>
 80489c8:	c7 04 24 10 a0 04 08 	movl   $0x804a010,(%esp)
 80489cf:	ff d0                	call   *%eax
 80489d1:	c9                   	leave  
 80489d2:	c3                   	ret    
 80489d3:	90                   	nop

080489d4 <main>:
 80489d4:	55                   	push   %ebp
 80489d5:	89 e5                	mov    %esp,%ebp
 80489d7:	83 e4 f0             	and    $0xfffffff0,%esp
 80489da:	56                   	push   %esi
 80489db:	53                   	push   %ebx
 80489dc:	83 ec 18             	sub    $0x18,%esp
 80489df:	8b 45 08             	mov    0x8(%ebp),%eax
 80489e2:	8b 75 0c             	mov    0xc(%ebp),%esi
 80489e5:	83 f8 01             	cmp    $0x1,%eax
 80489e8:	75 0c                	jne    80489f6 <main+0x22>
 80489ea:	a1 64 a6 04 08       	mov    0x804a664,%eax
 80489ef:	a3 90 a6 04 08       	mov    %eax,0x804a690
 80489f4:	eb 65                	jmp    8048a5b <main+0x87>
 80489f6:	83 f8 02             	cmp    $0x2,%eax
 80489f9:	75 42                	jne    8048a3d <main+0x69>
 80489fb:	8d 5e 04             	lea    0x4(%esi),%ebx
 80489fe:	c7 44 24 04 e8 97 04 	movl   $0x80497e8,0x4(%esp)
 8048a05:	08 
 8048a06:	8b 03                	mov    (%ebx),%eax
 8048a08:	89 04 24             	mov    %eax,(%esp)
 8048a0b:	e8 34 fe ff ff       	call   8048844 <fopen@plt>
 8048a10:	a3 90 a6 04 08       	mov    %eax,0x804a690
 8048a15:	85 c0                	test   %eax,%eax
 8048a17:	75 42                	jne    8048a5b <main+0x87>
 8048a19:	8b 03                	mov    (%ebx),%eax
 8048a1b:	89 44 24 08          	mov    %eax,0x8(%esp)
 8048a1f:	8b 06                	mov    (%esi),%eax
 8048a21:	89 44 24 04          	mov    %eax,0x4(%esp)
 8048a25:	c7 04 24 ea 97 04 08 	movl   $0x80497ea,(%esp)
 8048a2c:	e8 43 fe ff ff       	call   8048874 <printf@plt>
 8048a31:	c7 04 24 08 00 00 00 	movl   $0x8,(%esp)
 8048a38:	e8 c7 fe ff ff       	call   8048904 <exit@plt>
 8048a3d:	8b 06                	mov    (%esi),%eax
 8048a3f:	89 44 24 04          	mov    %eax,0x4(%esp)
 8048a43:	c7 04 24 07 98 04 08 	movl   $0x8049807,(%esp)
 8048a4a:	e8 25 fe ff ff       	call   8048874 <printf@plt>
 8048a4f:	c7 04 24 08 00 00 00 	movl   $0x8,(%esp)
 8048a56:	e8 a9 fe ff ff       	call   8048904 <exit@plt>
 8048a5b:	e8 9e 08 00 00       	call   80492fe <initialize_bomb>
 8048a60:	c7 04 24 6c 98 04 08 	movl   $0x804986c,(%esp)
 8048a67:	e8 68 fe ff ff       	call   80488d4 <puts@plt>
 8048a6c:	c7 04 24 a8 98 04 08 	movl   $0x80498a8,(%esp)
 8048a73:	e8 5c fe ff ff       	call   80488d4 <puts@plt>
 8048a78:	e8 65 07 00 00       	call   80491e2 <read_line>
 8048a7d:	89 04 24             	mov    %eax,(%esp)
 8048a80:	e8 04 04 00 00       	call   8048e89 <phase_1>
 8048a85:	e8 f0 05 00 00       	call   804907a <phase_defused>
 8048a8a:	c7 04 24 d4 98 04 08 	movl   $0x80498d4,(%esp)
 8048a91:	e8 3e fe ff ff       	call   80488d4 <puts@plt>
 8048a96:	e8 47 07 00 00       	call   80491e2 <read_line>
 8048a9b:	89 04 24             	mov    %eax,(%esp)
 8048a9e:	e8 93 03 00 00       	call   8048e36 <phase_2>
 8048aa3:	e8 d2 05 00 00       	call   804907a <phase_defused>
 8048aa8:	c7 04 24 21 98 04 08 	movl   $0x8049821,(%esp)
 8048aaf:	e8 20 fe ff ff       	call   80488d4 <puts@plt>
 8048ab4:	e8 29 07 00 00       	call   80491e2 <read_line>
 8048ab9:	89 04 24             	mov    %eax,(%esp)
 8048abc:	e8 20 02 00 00       	call   8048ce1 <phase_3>
 8048ac1:	e8 b4 05 00 00       	call   804907a <phase_defused>
 8048ac6:	c7 04 24 3f 98 04 08 	movl   $0x804983f,(%esp)
 8048acd:	e8 02 fe ff ff       	call   80488d4 <puts@plt>
 8048ad2:	e8 0b 07 00 00       	call   80491e2 <read_line>
 8048ad7:	89 04 24             	mov    %eax,(%esp)
 8048ada:	e8 a1 01 00 00       	call   8048c80 <phase_4>
 8048adf:	e8 96 05 00 00       	call   804907a <phase_defused>
 8048ae4:	c7 04 24 00 99 04 08 	movl   $0x8049900,(%esp)
 8048aeb:	e8 e4 fd ff ff       	call   80488d4 <puts@plt>
 8048af0:	e8 ed 06 00 00       	call   80491e2 <read_line>
 8048af5:	89 04 24             	mov    %eax,(%esp)
 8048af8:	e8 32 01 00 00       	call   8048c2f <phase_5>
 8048afd:	e8 78 05 00 00       	call   804907a <phase_defused>
 8048b02:	c7 04 24 4e 98 04 08 	movl   $0x804984e,(%esp)
 8048b09:	e8 c6 fd ff ff       	call   80488d4 <puts@plt>
 8048b0e:	b8 00 00 00 00       	mov    $0x0,%eax
 8048b13:	83 c4 18             	add    $0x18,%esp
 8048b16:	5b                   	pop    %ebx
 8048b17:	5e                   	pop    %esi
 8048b18:	89 ec                	mov    %ebp,%esp
 8048b1a:	5d                   	pop    %ebp
 8048b1b:	c3                   	ret    
 8048b1c:	90                   	nop
 8048b1d:	90                   	nop
 8048b1e:	90                   	nop
 8048b1f:	90                   	nop

08048b20 <func4>:
 8048b20:	55                   	push   %ebp
 8048b21:	89 e5                	mov    %esp,%ebp
 8048b23:	83 ec 28             	sub    $0x28,%esp
 8048b26:	89 5d f4             	mov    %ebx,-0xc(%ebp)
 8048b29:	89 75 f8             	mov    %esi,-0x8(%ebp)
 8048b2c:	89 7d fc             	mov    %edi,-0x4(%ebp)
 8048b2f:	8b 75 08             	mov    0x8(%ebp),%esi
 8048b32:	8b 5d 0c             	mov    0xc(%ebp),%ebx
 8048b35:	85 f6                	test   %esi,%esi
 8048b37:	7f 07                	jg     8048b40 <func4+0x20>
 8048b39:	bb 00 00 00 00       	mov    $0x0,%ebx
 8048b3e:	eb 29                	jmp    8048b69 <func4+0x49>
 8048b40:	83 fe 01             	cmp    $0x1,%esi
 8048b43:	74 24                	je     8048b69 <func4+0x49>
 8048b45:	89 5c 24 04          	mov    %ebx,0x4(%esp)
 8048b49:	8d 46 ff             	lea    -0x1(%esi),%eax
 8048b4c:	89 04 24             	mov    %eax,(%esp)
 8048b4f:	e8 cc ff ff ff       	call   8048b20 <func4>
 8048b54:	89 c7                	mov    %eax,%edi
 8048b56:	89 5c 24 04          	mov    %ebx,0x4(%esp)
 8048b5a:	83 ee 02             	sub    $0x2,%esi
 8048b5d:	89 34 24             	mov    %esi,(%esp)
 8048b60:	e8 bb ff ff ff       	call   8048b20 <func4>
 8048b65:	01 c7                	add    %eax,%edi
 8048b67:	01 fb                	add    %edi,%ebx
 8048b69:	89 d8                	mov    %ebx,%eax
 8048b6b:	8b 5d f4             	mov    -0xc(%ebp),%ebx
 8048b6e:	8b 75 f8             	mov    -0x8(%ebp),%esi
 8048b71:	8b 7d fc             	mov    -0x4(%ebp),%edi
 8048b74:	89 ec                	mov    %ebp,%esp
 8048b76:	5d                   	pop    %ebp
 8048b77:	c3                   	ret    

08048b78 <fun6>:
 8048b78:	55                   	push   %ebp
 8048b79:	89 e5                	mov    %esp,%ebp
 8048b7b:	53                   	push   %ebx
 8048b7c:	83 ec 14             	sub    $0x14,%esp
 8048b7f:	8b 55 08             	mov    0x8(%ebp),%edx
 8048b82:	8b 4d 0c             	mov    0xc(%ebp),%ecx
 8048b85:	b8 ff ff ff ff       	mov    $0xffffffff,%eax
 8048b8a:	85 d2                	test   %edx,%edx
 8048b8c:	74 35                	je     8048bc3 <fun6+0x4b>
 8048b8e:	8b 1a                	mov    (%edx),%ebx
 8048b90:	39 cb                	cmp    %ecx,%ebx
 8048b92:	7e 13                	jle    8048ba7 <fun6+0x2f>
 8048b94:	89 4c 24 04          	mov    %ecx,0x4(%esp)
 8048b98:	8b 42 04             	mov    0x4(%edx),%eax
 8048b9b:	89 04 24             	mov    %eax,(%esp)
 8048b9e:	e8 d5 ff ff ff       	call   8048b78 <fun6>
 8048ba3:	01 c0                	add    %eax,%eax
 8048ba5:	eb 1c                	jmp    8048bc3 <fun6+0x4b>
 8048ba7:	b8 00 00 00 00       	mov    $0x0,%eax
 8048bac:	39 cb                	cmp    %ecx,%ebx
 8048bae:	74 13                	je     8048bc3 <fun6+0x4b>
 8048bb0:	89 4c 24 04          	mov    %ecx,0x4(%esp)
 8048bb4:	8b 42 08             	mov    0x8(%edx),%eax
 8048bb7:	89 04 24             	mov    %eax,(%esp)
 8048bba:	e8 b9 ff ff ff       	call   8048b78 <fun6>
 8048bbf:	8d 44 00 01          	lea    0x1(%eax,%eax,1),%eax
 8048bc3:	83 c4 14             	add    $0x14,%esp
 8048bc6:	5b                   	pop    %ebx
 8048bc7:	5d                   	pop    %ebp
 8048bc8:	c3                   	ret    

08048bc9 <secret_phase>:
 8048bc9:	55                   	push   %ebp
 8048bca:	89 e5                	mov    %esp,%ebp
 8048bcc:	53                   	push   %ebx
 8048bcd:	83 ec 14             	sub    $0x14,%esp
 8048bd0:	e8 0d 06 00 00       	call   80491e2 <read_line>
 8048bd5:	c7 44 24 08 0a 00 00 	movl   $0xa,0x8(%esp)
 8048bdc:	00 
 8048bdd:	c7 44 24 04 00 00 00 	movl   $0x0,0x4(%esp)
 8048be4:	00 
 8048be5:	89 04 24             	mov    %eax,(%esp)
 8048be8:	e8 27 fc ff ff       	call   8048814 <strtol@plt>
 8048bed:	89 c3                	mov    %eax,%ebx
 8048bef:	8d 40 ff             	lea    -0x1(%eax),%eax
 8048bf2:	3d e8 03 00 00       	cmp    $0x3e8,%eax
 8048bf7:	76 05                	jbe    8048bfe <secret_phase+0x35>
 8048bf9:	e8 26 05 00 00       	call   8049124 <explode_bomb>
 8048bfe:	89 5c 24 04          	mov    %ebx,0x4(%esp)
 8048c02:	c7 04 24 48 a6 04 08 	movl   $0x804a648,(%esp)
 8048c09:	e8 6a ff ff ff       	call   8048b78 <fun6>
 8048c0e:	83 f8 05             	cmp    $0x5,%eax
 8048c11:	74 05                	je     8048c18 <secret_phase+0x4f>
 8048c13:	e8 0c 05 00 00       	call   8049124 <explode_bomb>
 8048c18:	c7 04 24 24 99 04 08 	movl   $0x8049924,(%esp)
 8048c1f:	e8 b0 fc ff ff       	call   80488d4 <puts@plt>
 8048c24:	e8 51 04 00 00       	call   804907a <phase_defused>
 8048c29:	83 c4 14             	add    $0x14,%esp
 8048c2c:	5b                   	pop    %ebx
 8048c2d:	5d                   	pop    %ebp
 8048c2e:	c3                   	ret    

08048c2f <phase_5>:
 8048c2f:	55                   	push   %ebp
 8048c30:	89 e5                	mov    %esp,%ebp
 8048c32:	57                   	push   %edi
 8048c33:	56                   	push   %esi
 8048c34:	53                   	push   %ebx
 8048c35:	83 ec 1c             	sub    $0x1c,%esp
 8048c38:	8b 5d 08             	mov    0x8(%ebp),%ebx
 8048c3b:	89 1c 24             	mov    %ebx,(%esp)
 8048c3e:	e8 7d 02 00 00       	call   8048ec0 <string_length>
 8048c43:	83 f8 06             	cmp    $0x6,%eax
 8048c46:	74 05                	je     8048c4d <phase_5+0x1e>
 8048c48:	e8 d7 04 00 00       	call   8049124 <explode_bomb>
 8048c4d:	ba 00 00 00 00       	mov    $0x0,%edx
 8048c52:	b8 00 00 00 00       	mov    $0x0,%eax
 8048c57:	b9 e0 99 04 08       	mov    $0x80499e0,%ecx
 8048c5c:	0f be 34 03          	movsbl (%ebx,%eax,1),%esi
 8048c60:	83 e6 0f             	and    $0xf,%esi
 8048c63:	03 14 b1             	add    (%ecx,%esi,4),%edx
 8048c66:	83 c0 01             	add    $0x1,%eax
 8048c69:	83 f8 06             	cmp    $0x6,%eax
 8048c6c:	75 ee                	jne    8048c5c <phase_5+0x2d>
 8048c6e:	83 fa 31             	cmp    $0x31,%edx
 8048c71:	74 05                	je     8048c78 <phase_5+0x49>
 8048c73:	e8 ac 04 00 00       	call   8049124 <explode_bomb>
 8048c78:	83 c4 1c             	add    $0x1c,%esp
 8048c7b:	5b                   	pop    %ebx
 8048c7c:	5e                   	pop    %esi
 8048c7d:	5f                   	pop    %edi
 8048c7e:	5d                   	pop    %ebp
 8048c7f:	c3                   	ret    

08048c80 <phase_4>:
 8048c80:	55                   	push   %ebp
 8048c81:	89 e5                	mov    %esp,%ebp
 8048c83:	83 ec 28             	sub    $0x28,%esp
 8048c86:	8d 45 f4             	lea    -0xc(%ebp),%eax
 8048c89:	89 44 24 0c          	mov    %eax,0xc(%esp)
 8048c8d:	8d 45 f0             	lea    -0x10(%ebp),%eax
 8048c90:	89 44 24 08          	mov    %eax,0x8(%esp)
 8048c94:	c7 44 24 04 2c 9a 04 	movl   $0x8049a2c,0x4(%esp)
 8048c9b:	08 
 8048c9c:	8b 45 08             	mov    0x8(%ebp),%eax
 8048c9f:	89 04 24             	mov    %eax,(%esp)
 8048ca2:	e8 1d fb ff ff       	call   80487c4 <__isoc99_sscanf@plt>
 8048ca7:	83 f8 02             	cmp    $0x2,%eax
 8048caa:	75 0d                	jne    8048cb9 <phase_4+0x39>
 8048cac:	8b 45 f4             	mov    -0xc(%ebp),%eax
 8048caf:	83 f8 01             	cmp    $0x1,%eax
 8048cb2:	7e 05                	jle    8048cb9 <phase_4+0x39>
 8048cb4:	83 f8 04             	cmp    $0x4,%eax
 8048cb7:	7e 05                	jle    8048cbe <phase_4+0x3e>
 8048cb9:	e8 66 04 00 00       	call   8049124 <explode_bomb>
 8048cbe:	8b 45 f4             	mov    -0xc(%ebp),%eax
 8048cc1:	89 44 24 04          	mov    %eax,0x4(%esp)
 8048cc5:	c7 04 24 08 00 00 00 	movl   $0x8,(%esp)
 8048ccc:	e8 4f fe ff ff       	call   8048b20 <func4>
 8048cd1:	3b 45 f0             	cmp    -0x10(%ebp),%eax
 8048cd4:	74 05                	je     8048cdb <phase_4+0x5b>
 8048cd6:	e8 49 04 00 00       	call   8049124 <explode_bomb>
 8048cdb:	c9                   	leave  
 8048cdc:	8d 74 26 00          	lea    0x0(%esi,%eiz,1),%esi
 8048ce0:	c3                   	ret    

08048ce1 <phase_3>:
 8048ce1:	55                   	push   %ebp
 8048ce2:	89 e5                	mov    %esp,%ebp
 8048ce4:	83 ec 38             	sub    $0x38,%esp
 8048ce7:	8d 45 f0             	lea    -0x10(%ebp),%eax
 8048cea:	89 44 24 10          	mov    %eax,0x10(%esp)
 8048cee:	8d 45 ef             	lea    -0x11(%ebp),%eax
 8048cf1:	89 44 24 0c          	mov    %eax,0xc(%esp)
 8048cf5:	8d 45 f4             	lea    -0xc(%ebp),%eax
 8048cf8:	89 44 24 08          	mov    %eax,0x8(%esp)
 8048cfc:	c7 44 24 04 9c 99 04 	movl   $0x804999c,0x4(%esp)
 8048d03:	08 
 8048d04:	8b 45 08             	mov    0x8(%ebp),%eax
 8048d07:	89 04 24             	mov    %eax,(%esp)
 8048d0a:	e8 b5 fa ff ff       	call   80487c4 <__isoc99_sscanf@plt>
 8048d0f:	83 f8 02             	cmp    $0x2,%eax
 8048d12:	7f 05                	jg     8048d19 <phase_3+0x38>
 8048d14:	e8 0b 04 00 00       	call   8049124 <explode_bomb>
 8048d19:	83 7d f4 07          	cmpl   $0x7,-0xc(%ebp)
 8048d1d:	8d 76 00             	lea    0x0(%esi),%esi
 8048d20:	0f 87 f8 00 00 00    	ja     8048e1e <phase_3+0x13d>
 8048d26:	8b 45 f4             	mov    -0xc(%ebp),%eax
 8048d29:	ff 24 85 c0 99 04 08 	jmp    *0x80499c0(,%eax,4)
 8048d30:	b8 75 00 00 00       	mov    $0x75,%eax
 8048d35:	81 7d f0 04 02 00 00 	cmpl   $0x204,-0x10(%ebp)
 8048d3c:	0f 84 e8 00 00 00    	je     8048e2a <phase_3+0x149>
 8048d42:	e8 dd 03 00 00       	call   8049124 <explode_bomb>
 8048d47:	b8 75 00 00 00       	mov    $0x75,%eax
 8048d4c:	e9 d9 00 00 00       	jmp    8048e2a <phase_3+0x149>
 8048d51:	b8 65 00 00 00       	mov    $0x65,%eax
 8048d56:	81 7d f0 7f 03 00 00 	cmpl   $0x37f,-0x10(%ebp)
 8048d5d:	0f 84 c7 00 00 00    	je     8048e2a <phase_3+0x149>
 8048d63:	e8 bc 03 00 00       	call   8049124 <explode_bomb>
 8048d68:	b8 65 00 00 00       	mov    $0x65,%eax
 8048d6d:	e9 b8 00 00 00       	jmp    8048e2a <phase_3+0x149>
 8048d72:	b8 62 00 00 00       	mov    $0x62,%eax
 8048d77:	81 7d f0 97 00 00 00 	cmpl   $0x97,-0x10(%ebp)
 8048d7e:	66 90                	xchg   %ax,%ax
 8048d80:	0f 84 a4 00 00 00    	je     8048e2a <phase_3+0x149>
 8048d86:	e8 99 03 00 00       	call   8049124 <explode_bomb>
 8048d8b:	b8 62 00 00 00       	mov    $0x62,%eax
 8048d90:	e9 95 00 00 00       	jmp    8048e2a <phase_3+0x149>
 8048d95:	b8 67 00 00 00       	mov    $0x67,%eax
 8048d9a:	81 7d f0 4c 03 00 00 	cmpl   $0x34c,-0x10(%ebp)
 8048da1:	0f 84 83 00 00 00    	je     8048e2a <phase_3+0x149>
 8048da7:	e8 78 03 00 00       	call   8049124 <explode_bomb>
 8048dac:	b8 67 00 00 00       	mov    $0x67,%eax
 8048db1:	eb 77                	jmp    8048e2a <phase_3+0x149>
 8048db3:	b8 64 00 00 00       	mov    $0x64,%eax
 8048db8:	81 7d f0 bb 02 00 00 	cmpl   $0x2bb,-0x10(%ebp)
 8048dbf:	90                   	nop
 8048dc0:	74 68                	je     8048e2a <phase_3+0x149>
 8048dc2:	e8 5d 03 00 00       	call   8049124 <explode_bomb>
 8048dc7:	b8 64 00 00 00       	mov    $0x64,%eax
 8048dcc:	eb 5c                	jmp    8048e2a <phase_3+0x149>
 8048dce:	b8 6b 00 00 00       	mov    $0x6b,%eax
 8048dd3:	81 7d f0 d1 03 00 00 	cmpl   $0x3d1,-0x10(%ebp)
 8048dda:	74 4e                	je     8048e2a <phase_3+0x149>
 8048ddc:	8d 74 26 00          	lea    0x0(%esi,%eiz,1),%esi
 8048de0:	e8 3f 03 00 00       	call   8049124 <explode_bomb>
 8048de5:	b8 6b 00 00 00       	mov    $0x6b,%eax
 8048dea:	eb 3e                	jmp    8048e2a <phase_3+0x149>
 8048dec:	b8 70 00 00 00       	mov    $0x70,%eax
 8048df1:	81 7d f0 69 03 00 00 	cmpl   $0x369,-0x10(%ebp)
 8048df8:	74 30                	je     8048e2a <phase_3+0x149>
 8048dfa:	e8 25 03 00 00       	call   8049124 <explode_bomb>
 8048dff:	b8 70 00 00 00       	mov    $0x70,%eax
 8048e04:	eb 24                	jmp    8048e2a <phase_3+0x149>
 8048e06:	b8 6d 00 00 00       	mov    $0x6d,%eax
 8048e0b:	83 7d f0 65          	cmpl   $0x65,-0x10(%ebp)
 8048e0f:	90                   	nop
 8048e10:	74 18                	je     8048e2a <phase_3+0x149>
 8048e12:	e8 0d 03 00 00       	call   8049124 <explode_bomb>
 8048e17:	b8 6d 00 00 00       	mov    $0x6d,%eax
 8048e1c:	eb 0c                	jmp    8048e2a <phase_3+0x149>
 8048e1e:	66 90                	xchg   %ax,%ax
 8048e20:	e8 ff 02 00 00       	call   8049124 <explode_bomb>
 8048e25:	b8 69 00 00 00       	mov    $0x69,%eax
 8048e2a:	3a 45 ef             	cmp    -0x11(%ebp),%al
 8048e2d:	74 05                	je     8048e34 <phase_3+0x153>
 8048e2f:	e8 f0 02 00 00       	call   8049124 <explode_bomb>
 8048e34:	c9                   	leave  
 8048e35:	c3                   	ret    

08048e36 <phase_2>:
 8048e36:	55                   	push   %ebp
 8048e37:	89 e5                	mov    %esp,%ebp
 8048e39:	56                   	push   %esi
 8048e3a:	53                   	push   %ebx
 8048e3b:	83 ec 30             	sub    $0x30,%esp
 8048e3e:	8d 45 e0             	lea    -0x20(%ebp),%eax
 8048e41:	89 44 24 04          	mov    %eax,0x4(%esp)
 8048e45:	8b 45 08             	mov    0x8(%ebp),%eax
 8048e48:	89 04 24             	mov    %eax,(%esp)
 8048e4b:	e8 f4 00 00 00       	call   8048f44 <read_six_numbers>
 8048e50:	83 f8 06             	cmp    $0x6,%eax
 8048e53:	74 05                	je     8048e5a <phase_2+0x24>
 8048e55:	e8 ca 02 00 00       	call   8049124 <explode_bomb>
 8048e5a:	83 7d e0 01          	cmpl   $0x1,-0x20(%ebp)
 8048e5e:	66 90                	xchg   %ax,%ax
 8048e60:	74 05                	je     8048e67 <phase_2+0x31>
 8048e62:	e8 bd 02 00 00       	call   8049124 <explode_bomb>
 8048e67:	8d 5d e4             	lea    -0x1c(%ebp),%ebx
 8048e6a:	8d 75 f8             	lea    -0x8(%ebp),%esi
 8048e6d:	8b 43 fc             	mov    -0x4(%ebx),%eax
 8048e70:	01 c0                	add    %eax,%eax
 8048e72:	39 03                	cmp    %eax,(%ebx)
 8048e74:	74 05                	je     8048e7b <phase_2+0x45>
 8048e76:	e8 a9 02 00 00       	call   8049124 <explode_bomb>
 8048e7b:	83 c3 04             	add    $0x4,%ebx
 8048e7e:	39 f3                	cmp    %esi,%ebx
 8048e80:	75 eb                	jne    8048e6d <phase_2+0x37>
 8048e82:	83 c4 30             	add    $0x30,%esp
 8048e85:	5b                   	pop    %ebx
 8048e86:	5e                   	pop    %esi
 8048e87:	5d                   	pop    %ebp
 8048e88:	c3                   	ret    

08048e89 <phase_1>:
 8048e89:	55                   	push   %ebp
 8048e8a:	89 e5                	mov    %esp,%ebp
 8048e8c:	83 ec 18             	sub    $0x18,%esp
 8048e8f:	c7 44 24 04 4c 99 04 	movl   $0x804994c,0x4(%esp)
 8048e96:	08 
 8048e97:	8b 45 08             	mov    0x8(%ebp),%eax
 8048e9a:	89 04 24             	mov    %eax,(%esp)
 8048e9d:	e8 39 00 00 00       	call   8048edb <strings_not_equal>
 8048ea2:	85 c0                	test   %eax,%eax
 8048ea4:	74 05                	je     8048eab <phase_1+0x22>
 8048ea6:	e8 79 02 00 00       	call   8049124 <explode_bomb>
 8048eab:	c9                   	leave  
 8048eac:	8d 74 26 00          	lea    0x0(%esi,%eiz,1),%esi
 8048eb0:	c3                   	ret    
 8048eb1:	90                   	nop
 8048eb2:	90                   	nop
 8048eb3:	90                   	nop
 8048eb4:	90                   	nop
 8048eb5:	90                   	nop
 8048eb6:	90                   	nop
 8048eb7:	90                   	nop
 8048eb8:	90                   	nop
 8048eb9:	90                   	nop
 8048eba:	90                   	nop
 8048ebb:	90                   	nop
 8048ebc:	90                   	nop
 8048ebd:	90                   	nop
 8048ebe:	90                   	nop
 8048ebf:	90                   	nop

08048ec0 <string_length>:
 8048ec0:	55                   	push   %ebp
 8048ec1:	89 e5                	mov    %esp,%ebp
 8048ec3:	8b 55 08             	mov    0x8(%ebp),%edx
 8048ec6:	b8 00 00 00 00       	mov    $0x0,%eax
 8048ecb:	80 3a 00             	cmpb   $0x0,(%edx)
 8048ece:	74 09                	je     8048ed9 <string_length+0x19>
 8048ed0:	83 c0 01             	add    $0x1,%eax
 8048ed3:	80 3c 02 00          	cmpb   $0x0,(%edx,%eax,1)
 8048ed7:	75 f7                	jne    8048ed0 <string_length+0x10>
 8048ed9:	5d                   	pop    %ebp
 8048eda:	c3                   	ret    

08048edb <strings_not_equal>:
 8048edb:	55                   	push   %ebp
 8048edc:	89 e5                	mov    %esp,%ebp
 8048ede:	57                   	push   %edi
 8048edf:	56                   	push   %esi
 8048ee0:	53                   	push   %ebx
 8048ee1:	83 ec 04             	sub    $0x4,%esp
 8048ee4:	8b 5d 08             	mov    0x8(%ebp),%ebx
 8048ee7:	8b 75 0c             	mov    0xc(%ebp),%esi
 8048eea:	89 1c 24             	mov    %ebx,(%esp)
 8048eed:	e8 ce ff ff ff       	call   8048ec0 <string_length>
 8048ef2:	89 c7                	mov    %eax,%edi
 8048ef4:	89 34 24             	mov    %esi,(%esp)
 8048ef7:	e8 c4 ff ff ff       	call   8048ec0 <string_length>
 8048efc:	39 c7                	cmp    %eax,%edi
 8048efe:	75 29                	jne    8048f29 <strings_not_equal+0x4e>
 8048f00:	0f b6 13             	movzbl (%ebx),%edx
 8048f03:	84 d2                	test   %dl,%dl
 8048f05:	74 2b                	je     8048f32 <strings_not_equal+0x57>
 8048f07:	b8 00 00 00 00       	mov    $0x0,%eax
 8048f0c:	3a 16                	cmp    (%esi),%dl
 8048f0e:	74 0e                	je     8048f1e <strings_not_equal+0x43>
 8048f10:	eb 17                	jmp    8048f29 <strings_not_equal+0x4e>
 8048f12:	0f b6 4c 06 01       	movzbl 0x1(%esi,%eax,1),%ecx
 8048f17:	83 c0 01             	add    $0x1,%eax
 8048f1a:	38 ca                	cmp    %cl,%dl
 8048f1c:	75 0b                	jne    8048f29 <strings_not_equal+0x4e>
 8048f1e:	0f b6 54 03 01       	movzbl 0x1(%ebx,%eax,1),%edx
 8048f23:	84 d2                	test   %dl,%dl
 8048f25:	75 eb                	jne    8048f12 <strings_not_equal+0x37>
 8048f27:	eb 09                	jmp    8048f32 <strings_not_equal+0x57>
 8048f29:	b8 01 00 00 00       	mov    $0x1,%eax
 8048f2e:	66 90                	xchg   %ax,%ax
 8048f30:	eb 05                	jmp    8048f37 <strings_not_equal+0x5c>
 8048f32:	b8 00 00 00 00       	mov    $0x0,%eax
 8048f37:	83 c4 04             	add    $0x4,%esp
 8048f3a:	5b                   	pop    %ebx
 8048f3b:	5e                   	pop    %esi
 8048f3c:	5f                   	pop    %edi
 8048f3d:	5d                   	pop    %ebp
 8048f3e:	c3                   	ret    

08048f3f <initialize_bomb_solve>:
 8048f3f:	55                   	push   %ebp
 8048f40:	89 e5                	mov    %esp,%ebp
 8048f42:	5d                   	pop    %ebp
 8048f43:	c3                   	ret    

08048f44 <read_six_numbers>:
 8048f44:	55                   	push   %ebp
 8048f45:	89 e5                	mov    %esp,%ebp
 8048f47:	83 ec 28             	sub    $0x28,%esp
 8048f4a:	8b 45 0c             	mov    0xc(%ebp),%eax
 8048f4d:	8d 50 14             	lea    0x14(%eax),%edx
 8048f50:	89 54 24 1c          	mov    %edx,0x1c(%esp)
 8048f54:	8d 50 10             	lea    0x10(%eax),%edx
 8048f57:	89 54 24 18          	mov    %edx,0x18(%esp)
 8048f5b:	8d 50 0c             	lea    0xc(%eax),%edx
 8048f5e:	89 54 24 14          	mov    %edx,0x14(%esp)
 8048f62:	8d 50 08             	lea    0x8(%eax),%edx
 8048f65:	89 54 24 10          	mov    %edx,0x10(%esp)
 8048f69:	8d 50 04             	lea    0x4(%eax),%edx
 8048f6c:	89 54 24 0c          	mov    %edx,0xc(%esp)
 8048f70:	89 44 24 08          	mov    %eax,0x8(%esp)
 8048f74:	c7 44 24 04 20 9a 04 	movl   $0x8049a20,0x4(%esp)
 8048f7b:	08 
 8048f7c:	8b 45 08             	mov    0x8(%ebp),%eax
 8048f7f:	89 04 24             	mov    %eax,(%esp)
 8048f82:	e8 3d f8 ff ff       	call   80487c4 <__isoc99_sscanf@plt>
 8048f87:	c9                   	leave  
 8048f88:	c3                   	ret    

08048f89 <invalid_phase>:
 8048f89:	55                   	push   %ebp
 8048f8a:	89 e5                	mov    %esp,%ebp
 8048f8c:	83 ec 18             	sub    $0x18,%esp
 8048f8f:	8b 45 08             	mov    0x8(%ebp),%eax
 8048f92:	89 44 24 04          	mov    %eax,0x4(%esp)
 8048f96:	c7 04 24 32 9a 04 08 	movl   $0x8049a32,(%esp)
 8048f9d:	e8 d2 f8 ff ff       	call   8048874 <printf@plt>
 8048fa2:	c7 04 24 08 00 00 00 	movl   $0x8,(%esp)
 8048fa9:	e8 56 f9 ff ff       	call   8048904 <exit@plt>

08048fae <send_msg>:
 8048fae:	55                   	push   %ebp
 8048faf:	89 e5                	mov    %esp,%ebp
 8048fb1:	57                   	push   %edi
 8048fb2:	53                   	push   %ebx
 8048fb3:	81 ec 20 40 00 00    	sub    $0x4020,%esp
 8048fb9:	8b 1d 8c a6 04 08    	mov    0x804a68c,%ebx
 8048fbf:	89 d8                	mov    %ebx,%eax
 8048fc1:	c1 e0 08             	shl    $0x8,%eax
 8048fc4:	8d 90 a0 a5 04 08    	lea    0x804a5a0(%eax),%edx
 8048fca:	89 d7                	mov    %edx,%edi
 8048fcc:	b8 00 00 00 00       	mov    $0x0,%eax
 8048fd1:	b9 ff ff ff ff       	mov    $0xffffffff,%ecx
 8048fd6:	f2 ae                	repnz scas %es:(%edi),%al
 8048fd8:	f7 d1                	not    %ecx
 8048fda:	83 c1 63             	add    $0x63,%ecx
 8048fdd:	81 f9 00 20 00 00    	cmp    $0x2000,%ecx
 8048fe3:	76 18                	jbe    8048ffd <send_msg+0x4f>
 8048fe5:	c7 04 24 04 9b 04 08 	movl   $0x8049b04,(%esp)
 8048fec:	e8 83 f8 ff ff       	call   8048874 <printf@plt>
 8048ff1:	c7 04 24 08 00 00 00 	movl   $0x8,(%esp)
 8048ff8:	e8 07 f9 ff ff       	call   8048904 <exit@plt>
 8048ffd:	b8 4c 9a 04 08       	mov    $0x8049a4c,%eax
 8049002:	83 7d 08 00          	cmpl   $0x0,0x8(%ebp)
 8049006:	75 05                	jne    804900d <send_msg+0x5f>
 8049008:	b8 43 9a 04 08       	mov    $0x8049a43,%eax
 804900d:	89 54 24 14          	mov    %edx,0x14(%esp)
 8049011:	89 5c 24 10          	mov    %ebx,0x10(%esp)
 8049015:	89 44 24 0c          	mov    %eax,0xc(%esp)
 8049019:	a1 80 a1 04 08       	mov    0x804a180,%eax
 804901e:	89 44 24 08          	mov    %eax,0x8(%esp)
 8049022:	c7 44 24 04 54 9a 04 	movl   $0x8049a54,0x4(%esp)
 8049029:	08 
 804902a:	8d 9d f8 df ff ff    	lea    -0x2008(%ebp),%ebx
 8049030:	89 1c 24             	mov    %ebx,(%esp)
 8049033:	e8 3c f7 ff ff       	call   8048774 <sprintf@plt>
 8049038:	8d 85 f8 bf ff ff    	lea    -0x4008(%ebp),%eax
 804903e:	89 44 24 08          	mov    %eax,0x8(%esp)
 8049042:	c7 44 24 04 00 00 00 	movl   $0x0,0x4(%esp)
 8049049:	00 
 804904a:	89 1c 24             	mov    %ebx,(%esp)
 804904d:	e8 27 06 00 00       	call   8049679 <driver_post>
 8049052:	85 c0                	test   %eax,%eax
 8049054:	79 1a                	jns    8049070 <send_msg+0xc2>
 8049056:	8d 85 f8 bf ff ff    	lea    -0x4008(%ebp),%eax
 804905c:	89 04 24             	mov    %eax,(%esp)
 804905f:	e8 70 f8 ff ff       	call   80488d4 <puts@plt>
 8049064:	c7 04 24 00 00 00 00 	movl   $0x0,(%esp)
 804906b:	e8 94 f8 ff ff       	call   8048904 <exit@plt>
 8049070:	81 c4 20 40 00 00    	add    $0x4020,%esp
 8049076:	5b                   	pop    %ebx
 8049077:	5f                   	pop    %edi
 8049078:	5d                   	pop    %ebp
 8049079:	c3                   	ret    

0804907a <phase_defused>:
 804907a:	55                   	push   %ebp
 804907b:	89 e5                	mov    %esp,%ebp
 804907d:	81 ec 38 01 00 00    	sub    $0x138,%esp
 8049083:	c7 04 24 01 00 00 00 	movl   $0x1,(%esp)
 804908a:	e8 1f ff ff ff       	call   8048fae <send_msg>
 804908f:	83 3d 8c a6 04 08 06 	cmpl   $0x6,0x804a68c
 8049096:	0f 85 86 00 00 00    	jne    8049122 <phase_defused+0xa8>
 804909c:	8d 85 f8 fe ff ff    	lea    -0x108(%ebp),%eax
 80490a2:	89 44 24 10          	mov    %eax,0x10(%esp)
 80490a6:	8d 85 f0 fe ff ff    	lea    -0x110(%ebp),%eax
 80490ac:	89 44 24 0c          	mov    %eax,0xc(%esp)
 80490b0:	8d 85 f4 fe ff ff    	lea    -0x10c(%ebp),%eax
 80490b6:	89 44 24 08          	mov    %eax,0x8(%esp)
 80490ba:	c7 44 24 04 60 9a 04 	movl   $0x8049a60,0x4(%esp)
 80490c1:	08 
 80490c2:	c7 04 24 a0 a9 04 08 	movl   $0x804a9a0,(%esp)
 80490c9:	e8 f6 f6 ff ff       	call   80487c4 <__isoc99_sscanf@plt>
 80490ce:	83 f8 03             	cmp    $0x3,%eax
 80490d1:	75 37                	jne    804910a <phase_defused+0x90>
 80490d3:	c7 44 24 04 69 9a 04 	movl   $0x8049a69,0x4(%esp)
 80490da:	08 
 80490db:	8d 85 f8 fe ff ff    	lea    -0x108(%ebp),%eax
 80490e1:	89 04 24             	mov    %eax,(%esp)
 80490e4:	e8 f2 fd ff ff       	call   8048edb <strings_not_equal>
 80490e9:	85 c0                	test   %eax,%eax
 80490eb:	75 1d                	jne    804910a <phase_defused+0x90>
 80490ed:	c7 04 24 28 9b 04 08 	movl   $0x8049b28,(%esp)
 80490f4:	e8 db f7 ff ff       	call   80488d4 <puts@plt>
 80490f9:	c7 04 24 50 9b 04 08 	movl   $0x8049b50,(%esp)
 8049100:	e8 cf f7 ff ff       	call   80488d4 <puts@plt>
 8049105:	e8 bf fa ff ff       	call   8048bc9 <secret_phase>
 804910a:	c7 04 24 88 9b 04 08 	movl   $0x8049b88,(%esp)
 8049111:	e8 be f7 ff ff       	call   80488d4 <puts@plt>
 8049116:	c7 04 24 b4 9b 04 08 	movl   $0x8049bb4,(%esp)
 804911d:	e8 b2 f7 ff ff       	call   80488d4 <puts@plt>
 8049122:	c9                   	leave  
 8049123:	c3                   	ret    

08049124 <explode_bomb>:
 8049124:	55                   	push   %ebp
 8049125:	89 e5                	mov    %esp,%ebp
 8049127:	83 ec 18             	sub    $0x18,%esp
 804912a:	c7 04 24 70 9a 04 08 	movl   $0x8049a70,(%esp)
 8049131:	e8 9e f7 ff ff       	call   80488d4 <puts@plt>
 8049136:	c7 04 24 79 9a 04 08 	movl   $0x8049a79,(%esp)
 804913d:	e8 92 f7 ff ff       	call   80488d4 <puts@plt>
 8049142:	c7 04 24 00 00 00 00 	movl   $0x0,(%esp)
 8049149:	e8 60 fe ff ff       	call   8048fae <send_msg>
 804914e:	c7 04 24 d8 9b 04 08 	movl   $0x8049bd8,(%esp)
 8049155:	e8 7a f7 ff ff       	call   80488d4 <puts@plt>
 804915a:	c7 04 24 08 00 00 00 	movl   $0x8,(%esp)
 8049161:	e8 9e f7 ff ff       	call   8048904 <exit@plt>

08049166 <blank_line>:
 8049166:	55                   	push   %ebp
 8049167:	89 e5                	mov    %esp,%ebp
 8049169:	56                   	push   %esi
 804916a:	53                   	push   %ebx
 804916b:	8b 75 08             	mov    0x8(%ebp),%esi
 804916e:	eb 1b                	jmp    804918b <blank_line+0x25>
 8049170:	e8 bf f6 ff ff       	call   8048834 <__ctype_b_loc@plt>
 8049175:	0f be db             	movsbl %bl,%ebx
 8049178:	8b 00                	mov    (%eax),%eax
 804917a:	f6 44 58 01 20       	testb  $0x20,0x1(%eax,%ebx,2)
 804917f:	75 07                	jne    8049188 <blank_line+0x22>
 8049181:	b8 00 00 00 00       	mov    $0x0,%eax
 8049186:	eb 0f                	jmp    8049197 <blank_line+0x31>
 8049188:	83 c6 01             	add    $0x1,%esi
 804918b:	0f b6 1e             	movzbl (%esi),%ebx
 804918e:	84 db                	test   %bl,%bl
 8049190:	75 de                	jne    8049170 <blank_line+0xa>
 8049192:	b8 01 00 00 00       	mov    $0x1,%eax
 8049197:	5b                   	pop    %ebx
 8049198:	5e                   	pop    %esi
 8049199:	5d                   	pop    %ebp
 804919a:	c3                   	ret    

0804919b <skip>:
 804919b:	55                   	push   %ebp
 804919c:	89 e5                	mov    %esp,%ebp
 804919e:	53                   	push   %ebx
 804919f:	83 ec 14             	sub    $0x14,%esp
 80491a2:	a1 90 a6 04 08       	mov    0x804a690,%eax
 80491a7:	89 44 24 08          	mov    %eax,0x8(%esp)
 80491ab:	c7 44 24 04 00 01 00 	movl   $0x100,0x4(%esp)
 80491b2:	00 
 80491b3:	a1 8c a6 04 08       	mov    0x804a68c,%eax
 80491b8:	c1 e0 08             	shl    $0x8,%eax
 80491bb:	05 a0 a6 04 08       	add    $0x804a6a0,%eax
 80491c0:	89 04 24             	mov    %eax,(%esp)
 80491c3:	e8 2c f6 ff ff       	call   80487f4 <fgets@plt>
 80491c8:	89 c3                	mov    %eax,%ebx
 80491ca:	85 c0                	test   %eax,%eax
 80491cc:	74 0c                	je     80491da <skip+0x3f>
 80491ce:	89 04 24             	mov    %eax,(%esp)
 80491d1:	e8 90 ff ff ff       	call   8049166 <blank_line>
 80491d6:	85 c0                	test   %eax,%eax
 80491d8:	75 c8                	jne    80491a2 <skip+0x7>
 80491da:	89 d8                	mov    %ebx,%eax
 80491dc:	83 c4 14             	add    $0x14,%esp
 80491df:	5b                   	pop    %ebx
 80491e0:	5d                   	pop    %ebp
 80491e1:	c3                   	ret    

080491e2 <read_line>:
 80491e2:	55                   	push   %ebp
 80491e3:	89 e5                	mov    %esp,%ebp
 80491e5:	83 ec 28             	sub    $0x28,%esp
 80491e8:	89 5d f4             	mov    %ebx,-0xc(%ebp)
 80491eb:	89 75 f8             	mov    %esi,-0x8(%ebp)
 80491ee:	89 7d fc             	mov    %edi,-0x4(%ebp)
 80491f1:	e8 a5 ff ff ff       	call   804919b <skip>
 80491f6:	85 c0                	test   %eax,%eax
 80491f8:	75 6c                	jne    8049266 <read_line+0x84>
 80491fa:	a1 90 a6 04 08       	mov    0x804a690,%eax
 80491ff:	3b 05 64 a6 04 08    	cmp    0x804a664,%eax
 8049205:	75 18                	jne    804921f <read_line+0x3d>
 8049207:	c7 04 24 90 9a 04 08 	movl   $0x8049a90,(%esp)
 804920e:	e8 c1 f6 ff ff       	call   80488d4 <puts@plt>
 8049213:	c7 04 24 08 00 00 00 	movl   $0x8,(%esp)
 804921a:	e8 e5 f6 ff ff       	call   8048904 <exit@plt>
 804921f:	c7 04 24 ae 9a 04 08 	movl   $0x8049aae,(%esp)
 8049226:	e8 a9 f5 ff ff       	call   80487d4 <getenv@plt>
 804922b:	85 c0                	test   %eax,%eax
 804922d:	74 0c                	je     804923b <read_line+0x59>
 804922f:	c7 04 24 00 00 00 00 	movl   $0x0,(%esp)
 8049236:	e8 c9 f6 ff ff       	call   8048904 <exit@plt>
 804923b:	a1 64 a6 04 08       	mov    0x804a664,%eax
 8049240:	a3 90 a6 04 08       	mov    %eax,0x804a690
 8049245:	e8 51 ff ff ff       	call   804919b <skip>
 804924a:	85 c0                	test   %eax,%eax
 804924c:	75 18                	jne    8049266 <read_line+0x84>
 804924e:	c7 04 24 90 9a 04 08 	movl   $0x8049a90,(%esp)
 8049255:	e8 7a f6 ff ff       	call   80488d4 <puts@plt>
 804925a:	c7 04 24 00 00 00 00 	movl   $0x0,(%esp)
 8049261:	e8 9e f6 ff ff       	call   8048904 <exit@plt>
 8049266:	be a0 a6 04 08       	mov    $0x804a6a0,%esi
 804926b:	a1 8c a6 04 08       	mov    0x804a68c,%eax
 8049270:	c1 e0 08             	shl    $0x8,%eax
 8049273:	8d b8 a0 a6 04 08    	lea    0x804a6a0(%eax),%edi
 8049279:	b8 00 00 00 00       	mov    $0x0,%eax
 804927e:	b9 ff ff ff ff       	mov    $0xffffffff,%ecx
 8049283:	f2 ae                	repnz scas %es:(%edi),%al
 8049285:	f7 d1                	not    %ecx
 8049287:	8d 59 ff             	lea    -0x1(%ecx),%ebx
 804928a:	81 fb fe 00 00 00    	cmp    $0xfe,%ebx
 8049290:	7e 40                	jle    80492d2 <read_line+0xf0>
 8049292:	c7 04 24 b9 9a 04 08 	movl   $0x8049ab9,(%esp)
 8049299:	e8 36 f6 ff ff       	call   80488d4 <puts@plt>
 804929e:	a1 8c a6 04 08       	mov    0x804a68c,%eax
 80492a3:	8d 50 01             	lea    0x1(%eax),%edx
 80492a6:	89 15 8c a6 04 08    	mov    %edx,0x804a68c
 80492ac:	c1 e0 08             	shl    $0x8,%eax
 80492af:	8d 04 06             	lea    (%esi,%eax,1),%eax
 80492b2:	c7 00 2a 2a 2a 74    	movl   $0x742a2a2a,(%eax)
 80492b8:	c7 40 04 72 75 6e 63 	movl   $0x636e7572,0x4(%eax)
 80492bf:	c7 40 08 61 74 65 64 	movl   $0x64657461,0x8(%eax)
 80492c6:	c7 40 0c 2a 2a 2a 00 	movl   $0x2a2a2a,0xc(%eax)
 80492cd:	e8 52 fe ff ff       	call   8049124 <explode_bomb>
 80492d2:	8b 15 8c a6 04 08    	mov    0x804a68c,%edx
 80492d8:	89 d0                	mov    %edx,%eax
 80492da:	c1 e0 08             	shl    $0x8,%eax
 80492dd:	c6 84 03 9f a6 04 08 	movb   $0x0,0x804a69f(%ebx,%eax,1)
 80492e4:	00 
 80492e5:	83 c2 01             	add    $0x1,%edx
 80492e8:	89 15 8c a6 04 08    	mov    %edx,0x804a68c
 80492ee:	8d 04 06             	lea    (%esi,%eax,1),%eax
 80492f1:	8b 5d f4             	mov    -0xc(%ebp),%ebx
 80492f4:	8b 75 f8             	mov    -0x8(%ebp),%esi
 80492f7:	8b 7d fc             	mov    -0x4(%ebp),%edi
 80492fa:	89 ec                	mov    %ebp,%esp
 80492fc:	5d                   	pop    %ebp
 80492fd:	c3                   	ret    

080492fe <initialize_bomb>:
 80492fe:	55                   	push   %ebp
 80492ff:	89 e5                	mov    %esp,%ebp
 8049301:	57                   	push   %edi
 8049302:	56                   	push   %esi
 8049303:	81 ec 50 20 00 00    	sub    $0x2050,%esp
 8049309:	c7 44 24 04 d6 93 04 	movl   $0x80493d6,0x4(%esp)
 8049310:	08 
 8049311:	c7 04 24 02 00 00 00 	movl   $0x2,(%esp)
 8049318:	e8 87 f4 ff ff       	call   80487a4 <signal@plt>
 804931d:	c7 44 24 04 40 00 00 	movl   $0x40,0x4(%esp)
 8049324:	00 
 8049325:	8d 45 b8             	lea    -0x48(%ebp),%eax
 8049328:	89 04 24             	mov    %eax,(%esp)
 804932b:	e8 84 f5 ff ff       	call   80488b4 <gethostname@plt>
 8049330:	85 c0                	test   %eax,%eax
 8049332:	74 18                	je     804934c <initialize_bomb+0x4e>
 8049334:	c7 04 24 fc 9b 04 08 	movl   $0x8049bfc,(%esp)
 804933b:	e8 94 f5 ff ff       	call   80488d4 <puts@plt>
 8049340:	c7 04 24 08 00 00 00 	movl   $0x8,(%esp)
 8049347:	e8 b8 f5 ff ff       	call   8048904 <exit@plt>
 804934c:	8d 75 b8             	lea    -0x48(%ebp),%esi
 804934f:	bf d4 9a 04 08       	mov    $0x8049ad4,%edi
 8049354:	b9 05 00 00 00       	mov    $0x5,%ecx
 8049359:	f3 a6                	repz cmpsb %es:(%edi),%ds:(%esi)
 804935b:	0f 97 c2             	seta   %dl
 804935e:	0f 92 c0             	setb   %al
 8049361:	38 c2                	cmp    %al,%dl
 8049363:	75 14                	jne    8049379 <initialize_bomb+0x7b>
 8049365:	8d 7d b8             	lea    -0x48(%ebp),%edi
 8049368:	b8 00 00 00 00       	mov    $0x0,%eax
 804936d:	b9 ff ff ff ff       	mov    $0xffffffff,%ecx
 8049372:	f2 ae                	repnz scas %es:(%edi),%al
 8049374:	83 f9 f7             	cmp    $0xfffffff7,%ecx
 8049377:	74 1f                	je     8049398 <initialize_bomb+0x9a>
 8049379:	8d 45 b8             	lea    -0x48(%ebp),%eax
 804937c:	89 44 24 04          	mov    %eax,0x4(%esp)
 8049380:	c7 04 24 2c 9c 04 08 	movl   $0x8049c2c,(%esp)
 8049387:	e8 e8 f4 ff ff       	call   8048874 <printf@plt>
 804938c:	c7 04 24 08 00 00 00 	movl   $0x8,(%esp)
 8049393:	e8 6c f5 ff ff       	call   8048904 <exit@plt>
 8049398:	8d 85 b8 df ff ff    	lea    -0x2048(%ebp),%eax
 804939e:	89 04 24             	mov    %eax,(%esp)
 80493a1:	e8 8e 00 00 00       	call   8049434 <init_driver>
 80493a6:	85 c0                	test   %eax,%eax
 80493a8:	79 22                	jns    80493cc <initialize_bomb+0xce>
 80493aa:	8d 85 b8 df ff ff    	lea    -0x2048(%ebp),%eax
 80493b0:	89 44 24 04          	mov    %eax,0x4(%esp)
 80493b4:	c7 04 24 da 9a 04 08 	movl   $0x8049ada,(%esp)
 80493bb:	e8 b4 f4 ff ff       	call   8048874 <printf@plt>
 80493c0:	c7 04 24 08 00 00 00 	movl   $0x8,(%esp)
 80493c7:	e8 38 f5 ff ff       	call   8048904 <exit@plt>
 80493cc:	81 c4 50 20 00 00    	add    $0x2050,%esp
 80493d2:	5e                   	pop    %esi
 80493d3:	5f                   	pop    %edi
 80493d4:	5d                   	pop    %ebp
 80493d5:	c3                   	ret    

080493d6 <sig_handler>:
 80493d6:	55                   	push   %ebp
 80493d7:	89 e5                	mov    %esp,%ebp
 80493d9:	83 ec 18             	sub    $0x18,%esp
 80493dc:	c7 04 24 64 9c 04 08 	movl   $0x8049c64,(%esp)
 80493e3:	e8 ec f4 ff ff       	call   80488d4 <puts@plt>
 80493e8:	c7 04 24 03 00 00 00 	movl   $0x3,(%esp)
 80493ef:	e8 d0 f4 ff ff       	call   80488c4 <sleep@plt>
 80493f4:	c7 04 24 f4 9a 04 08 	movl   $0x8049af4,(%esp)
 80493fb:	e8 74 f4 ff ff       	call   8048874 <printf@plt>
 8049400:	a1 80 a6 04 08       	mov    0x804a680,%eax
 8049405:	89 04 24             	mov    %eax,(%esp)
 8049408:	e8 17 f4 ff ff       	call   8048824 <fflush@plt>
 804940d:	c7 04 24 01 00 00 00 	movl   $0x1,(%esp)
 8049414:	e8 ab f4 ff ff       	call   80488c4 <sleep@plt>
 8049419:	c7 04 24 fc 9a 04 08 	movl   $0x8049afc,(%esp)
 8049420:	e8 af f4 ff ff       	call   80488d4 <puts@plt>
 8049425:	c7 04 24 10 00 00 00 	movl   $0x10,(%esp)
 804942c:	e8 d3 f4 ff ff       	call   8048904 <exit@plt>
 8049431:	90                   	nop
 8049432:	90                   	nop
 8049433:	90                   	nop

08049434 <init_driver>:
 8049434:	55                   	push   %ebp
 8049435:	89 e5                	mov    %esp,%ebp
 8049437:	83 ec 18             	sub    $0x18,%esp
 804943a:	c7 44 24 04 01 00 00 	movl   $0x1,0x4(%esp)
 8049441:	00 
 8049442:	c7 04 24 0d 00 00 00 	movl   $0xd,(%esp)
 8049449:	e8 56 f3 ff ff       	call   80487a4 <signal@plt>
 804944e:	c7 44 24 04 01 00 00 	movl   $0x1,0x4(%esp)
 8049455:	00 
 8049456:	c7 04 24 1d 00 00 00 	movl   $0x1d,(%esp)
 804945d:	e8 42 f3 ff ff       	call   80487a4 <signal@plt>
 8049462:	c7 44 24 04 01 00 00 	movl   $0x1,0x4(%esp)
 8049469:	00 
 804946a:	c7 04 24 1d 00 00 00 	movl   $0x1d,(%esp)
 8049471:	e8 2e f3 ff ff       	call   80487a4 <signal@plt>
 8049476:	b8 00 00 00 00       	mov    $0x0,%eax
 804947b:	c9                   	leave  
 804947c:	c3                   	ret    

0804947d <init_timeout>:
 804947d:	55                   	push   %ebp
 804947e:	89 e5                	mov    %esp,%ebp
 8049480:	53                   	push   %ebx
 8049481:	83 ec 14             	sub    $0x14,%esp
 8049484:	8b 5d 08             	mov    0x8(%ebp),%ebx
 8049487:	85 db                	test   %ebx,%ebx
 8049489:	74 25                	je     80494b0 <init_timeout+0x33>
 804948b:	c7 44 24 04 de 96 04 	movl   $0x80496de,0x4(%esp)
 8049492:	08 
 8049493:	c7 04 24 0e 00 00 00 	movl   $0xe,(%esp)
 804949a:	e8 05 f3 ff ff       	call   80487a4 <signal@plt>
 804949f:	89 d8                	mov    %ebx,%eax
 80494a1:	c1 f8 1f             	sar    $0x1f,%eax
 80494a4:	f7 d0                	not    %eax
 80494a6:	21 c3                	and    %eax,%ebx
 80494a8:	89 1c 24             	mov    %ebx,(%esp)
 80494ab:	e8 a4 f3 ff ff       	call   8048854 <alarm@plt>
 80494b0:	83 c4 14             	add    $0x14,%esp
 80494b3:	5b                   	pop    %ebx
 80494b4:	5d                   	pop    %ebp
 80494b5:	c3                   	ret    

080494b6 <submitr>:
 80494b6:	55                   	push   %ebp
 80494b7:	89 e5                	mov    %esp,%ebp
 80494b9:	57                   	push   %edi
 80494ba:	56                   	push   %esi
 80494bb:	53                   	push   %ebx
 80494bc:	81 ec 2c 02 00 00    	sub    $0x22c,%esp
 80494c2:	8b 75 18             	mov    0x18(%ebp),%esi
 80494c5:	e8 ba f3 ff ff       	call   8048884 <getuid@plt>
 80494ca:	89 04 24             	mov    %eax,(%esp)
 80494cd:	e8 92 f3 ff ff       	call   8048864 <getpwuid@plt>
 80494d2:	c7 44 24 14 9c 9c 04 	movl   $0x8049c9c,0x14(%esp)
 80494d9:	08 
 80494da:	8b 00                	mov    (%eax),%eax
 80494dc:	89 44 24 10          	mov    %eax,0x10(%esp)
 80494e0:	c7 44 24 0c a5 9c 04 	movl   $0x8049ca5,0xc(%esp)
 80494e7:	08 
 80494e8:	c7 44 24 08 c0 9c 04 	movl   $0x8049cc0,0x8(%esp)
 80494ef:	08 
 80494f0:	c7 44 24 04 00 02 00 	movl   $0x200,0x4(%esp)
 80494f7:	00 
 80494f8:	8d 9d e8 fd ff ff    	lea    -0x218(%ebp),%ebx
 80494fe:	89 1c 24             	mov    %ebx,(%esp)
 8049501:	e8 ee f3 ff ff       	call   80488f4 <snprintf@plt>
 8049506:	c7 44 24 04 41 04 00 	movl   $0x441,0x4(%esp)
 804950d:	00 
 804950e:	89 1c 24             	mov    %ebx,(%esp)
 8049511:	e8 6e f2 ff ff       	call   8048784 <open@plt>
 8049516:	89 c3                	mov    %eax,%ebx
 8049518:	85 c0                	test   %eax,%eax
 804951a:	79 38                	jns    8049554 <submitr+0x9e>
 804951c:	e8 43 f2 ff ff       	call   8048764 <__errno_location@plt>
 8049521:	8b 00                	mov    (%eax),%eax
 8049523:	89 04 24             	mov    %eax,(%esp)
 8049526:	e8 69 f2 ff ff       	call   8048794 <strerror@plt>
 804952b:	89 44 24 0c          	mov    %eax,0xc(%esp)
 804952f:	c7 44 24 08 1c 9d 04 	movl   $0x8049d1c,0x8(%esp)
 8049536:	08 
 8049537:	c7 44 24 04 c2 9c 04 	movl   $0x8049cc2,0x4(%esp)
 804953e:	08 
 804953f:	8b 45 1c             	mov    0x1c(%ebp),%eax
 8049542:	89 04 24             	mov    %eax,(%esp)
 8049545:	e8 2a f2 ff ff       	call   8048774 <sprintf@plt>
 804954a:	b8 ff ff ff ff       	mov    $0xffffffff,%eax
 804954f:	e9 1a 01 00 00       	jmp    804966e <submitr+0x1b8>
 8049554:	c7 44 24 04 06 00 00 	movl   $0x6,0x4(%esp)
 804955b:	00 
 804955c:	89 04 24             	mov    %eax,(%esp)
 804955f:	e8 80 f3 ff ff       	call   80488e4 <flock@plt>
 8049564:	85 c0                	test   %eax,%eax
 8049566:	74 38                	je     80495a0 <submitr+0xea>
 8049568:	e8 f7 f1 ff ff       	call   8048764 <__errno_location@plt>
 804956d:	8b 00                	mov    (%eax),%eax
 804956f:	89 04 24             	mov    %eax,(%esp)
 8049572:	e8 1d f2 ff ff       	call   8048794 <strerror@plt>
 8049577:	89 44 24 0c          	mov    %eax,0xc(%esp)
 804957b:	c7 44 24 08 c7 9c 04 	movl   $0x8049cc7,0x8(%esp)
 8049582:	08 
 8049583:	c7 44 24 04 c2 9c 04 	movl   $0x8049cc2,0x4(%esp)
 804958a:	08 
 804958b:	8b 45 1c             	mov    0x1c(%ebp),%eax
 804958e:	89 04 24             	mov    %eax,(%esp)
 8049591:	e8 de f1 ff ff       	call   8048774 <sprintf@plt>
 8049596:	b8 ff ff ff ff       	mov    $0xffffffff,%eax
 804959b:	e9 ce 00 00 00       	jmp    804966e <submitr+0x1b8>
 80495a0:	89 f7                	mov    %esi,%edi
 80495a2:	b8 00 00 00 00       	mov    $0x0,%eax
 80495a7:	b9 ff ff ff ff       	mov    $0xffffffff,%ecx
 80495ac:	f2 ae                	repnz scas %es:(%edi),%al
 80495ae:	f7 d1                	not    %ecx
 80495b0:	83 e9 01             	sub    $0x1,%ecx
 80495b3:	89 4c 24 08          	mov    %ecx,0x8(%esp)
 80495b7:	89 74 24 04          	mov    %esi,0x4(%esp)
 80495bb:	89 1c 24             	mov    %ebx,(%esp)
 80495be:	e8 21 f2 ff ff       	call   80487e4 <write@plt>
 80495c3:	85 c0                	test   %eax,%eax
 80495c5:	78 1c                	js     80495e3 <submitr+0x12d>
 80495c7:	c7 44 24 08 01 00 00 	movl   $0x1,0x8(%esp)
 80495ce:	00 
 80495cf:	c7 44 24 04 1f 98 04 	movl   $0x804981f,0x4(%esp)
 80495d6:	08 
 80495d7:	89 1c 24             	mov    %ebx,(%esp)
 80495da:	e8 05 f2 ff ff       	call   80487e4 <write@plt>
 80495df:	85 c0                	test   %eax,%eax
 80495e1:	79 35                	jns    8049618 <submitr+0x162>
 80495e3:	e8 7c f1 ff ff       	call   8048764 <__errno_location@plt>
 80495e8:	8b 00                	mov    (%eax),%eax
 80495ea:	89 04 24             	mov    %eax,(%esp)
 80495ed:	e8 a2 f1 ff ff       	call   8048794 <strerror@plt>
 80495f2:	89 44 24 0c          	mov    %eax,0xc(%esp)
 80495f6:	c7 44 24 08 40 9d 04 	movl   $0x8049d40,0x8(%esp)
 80495fd:	08 
 80495fe:	c7 44 24 04 c2 9c 04 	movl   $0x8049cc2,0x4(%esp)
 8049605:	08 
 8049606:	8b 45 1c             	mov    0x1c(%ebp),%eax
 8049609:	89 04 24             	mov    %eax,(%esp)
 804960c:	e8 63 f1 ff ff       	call   8048774 <sprintf@plt>
 8049611:	b8 ff ff ff ff       	mov    $0xffffffff,%eax
 8049616:	eb 56                	jmp    804966e <submitr+0x1b8>
 8049618:	c7 44 24 04 08 00 00 	movl   $0x8,0x4(%esp)
 804961f:	00 
 8049620:	89 1c 24             	mov    %ebx,(%esp)
 8049623:	e8 bc f2 ff ff       	call   80488e4 <flock@plt>
 8049628:	85 c0                	test   %eax,%eax
 804962a:	74 35                	je     8049661 <submitr+0x1ab>
 804962c:	e8 33 f1 ff ff       	call   8048764 <__errno_location@plt>
 8049631:	8b 00                	mov    (%eax),%eax
 8049633:	89 04 24             	mov    %eax,(%esp)
 8049636:	e8 59 f1 ff ff       	call   8048794 <strerror@plt>
 804963b:	89 44 24 0c          	mov    %eax,0xc(%esp)
 804963f:	c7 44 24 08 64 9d 04 	movl   $0x8049d64,0x8(%esp)
 8049646:	08 
 8049647:	c7 44 24 04 c2 9c 04 	movl   $0x8049cc2,0x4(%esp)
 804964e:	08 
 804964f:	8b 45 1c             	mov    0x1c(%ebp),%eax
 8049652:	89 04 24             	mov    %eax,(%esp)
 8049655:	e8 1a f1 ff ff       	call   8048774 <sprintf@plt>
 804965a:	b8 ff ff ff ff       	mov    $0xffffffff,%eax
 804965f:	eb 0d                	jmp    804966e <submitr+0x1b8>
 8049661:	89 1c 24             	mov    %ebx,(%esp)
 8049664:	e8 2b f2 ff ff       	call   8048894 <close@plt>
 8049669:	b8 00 00 00 00       	mov    $0x0,%eax
 804966e:	81 c4 2c 02 00 00    	add    $0x22c,%esp
 8049674:	5b                   	pop    %ebx
 8049675:	5e                   	pop    %esi
 8049676:	5f                   	pop    %edi
 8049677:	5d                   	pop    %ebp
 8049678:	c3                   	ret    

08049679 <driver_post>:
 8049679:	55                   	push   %ebp
 804967a:	89 e5                	mov    %esp,%ebp
 804967c:	53                   	push   %ebx
 804967d:	83 ec 24             	sub    $0x24,%esp
 8049680:	8b 45 08             	mov    0x8(%ebp),%eax
 8049683:	8b 5d 10             	mov    0x10(%ebp),%ebx
 8049686:	83 7d 0c 00          	cmpl   $0x0,0xc(%ebp)
 804968a:	74 20                	je     80496ac <driver_post+0x33>
 804968c:	89 44 24 04          	mov    %eax,0x4(%esp)
 8049690:	c7 04 24 e4 9c 04 08 	movl   $0x8049ce4,(%esp)
 8049697:	e8 d8 f1 ff ff       	call   8048874 <printf@plt>
 804969c:	66 c7 03 4f 4b       	movw   $0x4b4f,(%ebx)
 80496a1:	c6 43 02 00          	movb   $0x0,0x2(%ebx)
 80496a5:	b8 00 00 00 00       	mov    $0x0,%eax
 80496aa:	eb 2c                	jmp    80496d8 <driver_post+0x5f>
 80496ac:	89 5c 24 14          	mov    %ebx,0x14(%esp)
 80496b0:	89 44 24 10          	mov    %eax,0x10(%esp)
 80496b4:	c7 44 24 0c fb 9c 04 	movl   $0x8049cfb,0xc(%esp)
 80496bb:	08 
 80496bc:	c7 44 24 08 03 9d 04 	movl   $0x8049d03,0x8(%esp)
 80496c3:	08 
 80496c4:	c7 44 24 04 e9 80 00 	movl   $0x80e9,0x4(%esp)
 80496cb:	00 
 80496cc:	c7 04 24 09 9d 04 08 	movl   $0x8049d09,(%esp)
 80496d3:	e8 de fd ff ff       	call   80494b6 <submitr>
 80496d8:	83 c4 24             	add    $0x24,%esp
 80496db:	5b                   	pop    %ebx
 80496dc:	5d                   	pop    %ebp
 80496dd:	c3                   	ret    

080496de <sigalrm_handler>:
 80496de:	55                   	push   %ebp
 80496df:	89 e5                	mov    %esp,%ebp
 80496e1:	83 ec 18             	sub    $0x18,%esp
 80496e4:	c7 44 24 08 00 00 00 	movl   $0x0,0x8(%esp)
 80496eb:	00 
 80496ec:	c7 44 24 04 84 9d 04 	movl   $0x8049d84,0x4(%esp)
 80496f3:	08 
 80496f4:	a1 60 a6 04 08       	mov    0x804a660,%eax
 80496f9:	89 04 24             	mov    %eax,(%esp)
 80496fc:	e8 a3 f1 ff ff       	call   80488a4 <fprintf@plt>
 8049701:	c7 04 24 01 00 00 00 	movl   $0x1,(%esp)
 8049708:	e8 f7 f1 ff ff       	call   8048904 <exit@plt>
 804970d:	90                   	nop
 804970e:	90                   	nop
 804970f:	90                   	nop

08049710 <__libc_csu_fini>:
 8049710:	55                   	push   %ebp
 8049711:	89 e5                	mov    %esp,%ebp
 8049713:	5d                   	pop    %ebp
 8049714:	c3                   	ret    
 8049715:	8d 74 26 00          	lea    0x0(%esi,%eiz,1),%esi
 8049719:	8d bc 27 00 00 00 00 	lea    0x0(%edi,%eiz,1),%edi

08049720 <__libc_csu_init>:
 8049720:	55                   	push   %ebp
 8049721:	89 e5                	mov    %esp,%ebp
 8049723:	57                   	push   %edi
 8049724:	56                   	push   %esi
 8049725:	53                   	push   %ebx
 8049726:	e8 4f 00 00 00       	call   804977a <__i686.get_pc_thunk.bx>
 804972b:	81 c3 bd 09 00 00    	add    $0x9bd,%ebx
 8049731:	83 ec 1c             	sub    $0x1c,%esp
 8049734:	e8 eb ef ff ff       	call   8048724 <_init>
 8049739:	8d bb 18 ff ff ff    	lea    -0xe8(%ebx),%edi
 804973f:	8d 83 18 ff ff ff    	lea    -0xe8(%ebx),%eax
 8049745:	29 c7                	sub    %eax,%edi
 8049747:	c1 ff 02             	sar    $0x2,%edi
 804974a:	85 ff                	test   %edi,%edi
 804974c:	74 24                	je     8049772 <__libc_csu_init+0x52>
 804974e:	31 f6                	xor    %esi,%esi
 8049750:	8b 45 10             	mov    0x10(%ebp),%eax
 8049753:	89 44 24 08          	mov    %eax,0x8(%esp)
 8049757:	8b 45 0c             	mov    0xc(%ebp),%eax
 804975a:	89 44 24 04          	mov    %eax,0x4(%esp)
 804975e:	8b 45 08             	mov    0x8(%ebp),%eax
 8049761:	89 04 24             	mov    %eax,(%esp)
 8049764:	ff 94 b3 18 ff ff ff 	call   *-0xe8(%ebx,%esi,4)
 804976b:	83 c6 01             	add    $0x1,%esi
 804976e:	39 fe                	cmp    %edi,%esi
 8049770:	72 de                	jb     8049750 <__libc_csu_init+0x30>
 8049772:	83 c4 1c             	add    $0x1c,%esp
 8049775:	5b                   	pop    %ebx
 8049776:	5e                   	pop    %esi
 8049777:	5f                   	pop    %edi
 8049778:	5d                   	pop    %ebp
 8049779:	c3                   	ret    

0804977a <__i686.get_pc_thunk.bx>:
 804977a:	8b 1c 24             	mov    (%esp),%ebx
 804977d:	c3                   	ret    
 804977e:	90                   	nop
 804977f:	90                   	nop

08049780 <__do_global_ctors_aux>:
 8049780:	55                   	push   %ebp
 8049781:	89 e5                	mov    %esp,%ebp
 8049783:	53                   	push   %ebx
 8049784:	83 ec 04             	sub    $0x4,%esp
 8049787:	a1 00 a0 04 08       	mov    0x804a000,%eax
 804978c:	83 f8 ff             	cmp    $0xffffffff,%eax
 804978f:	74 13                	je     80497a4 <__do_global_ctors_aux+0x24>
 8049791:	bb 00 a0 04 08       	mov    $0x804a000,%ebx
 8049796:	66 90                	xchg   %ax,%ax
 8049798:	83 eb 04             	sub    $0x4,%ebx
 804979b:	ff d0                	call   *%eax
 804979d:	8b 03                	mov    (%ebx),%eax
 804979f:	83 f8 ff             	cmp    $0xffffffff,%eax
 80497a2:	75 f4                	jne    8049798 <__do_global_ctors_aux+0x18>
 80497a4:	83 c4 04             	add    $0x4,%esp
 80497a7:	5b                   	pop    %ebx
 80497a8:	5d                   	pop    %ebp
 80497a9:	c3                   	ret    
 80497aa:	90                   	nop
 80497ab:	90                   	nop

Disassembly of section .fini:

080497ac <_fini>:
 80497ac:	55                   	push   %ebp
 80497ad:	89 e5                	mov    %esp,%ebp
 80497af:	53                   	push   %ebx
 80497b0:	83 ec 04             	sub    $0x4,%esp
 80497b3:	e8 00 00 00 00       	call   80497b8 <_fini+0xc>
 80497b8:	5b                   	pop    %ebx
 80497b9:	81 c3 30 09 00 00    	add    $0x930,%ebx
 80497bf:	e8 8c f1 ff ff       	call   8048950 <__do_global_dtors_aux>
 80497c4:	59                   	pop    %ecx
 80497c5:	5b                   	pop    %ebx
 80497c6:	c9                   	leave  
 80497c7:	c3                   	ret    
